; Function Attrs: nounwind uwtable
define ptr @l_Std_Range_forIn_x27_loop___at___private_Lean_Compiler_IR_SimpCase_0__Lean_IR_getOccsOf___spec__1___boxed(ptr noundef %0, ptr noundef %1, ptr noundef %2, ptr noundef %3, ptr noundef %4, ptr noundef %5, ptr noundef readnone captures(none) %6, ptr noundef readnone captures(none) %7) local_unnamed_addr #0 {
  %9 = tail call ptr @l_Std_Range_forIn_x27_loop___at___private_Lean_Compiler_IR_SimpCase_0__Lean_IR_getOccsOf___spec__1(ptr noundef %0, ptr poison, ptr noundef %2, ptr noundef %3, ptr noundef %4, ptr noundef %5, ptr poison, ptr poison)
  %10 = ptrtoint ptr %3 to i64
  %11 = and i64 %10, 1
  %.not = icmp eq i64 %11, 0
  br i1 %.not, label %12, label %lean_dec.exit13

12:                                               ; preds = %8
  %13 = load i32, ptr %3, align 4, !tbaa !8
  %14 = icmp sgt i32 %13, 1
  br i1 %14, label %15, label %17, !prof !11

15:                                               ; preds = %12
  %16 = add nsw i32 %13, -1
  store i32 %16, ptr %3, align 4, !tbaa !8
  br label %lean_dec.exit13

17:                                               ; preds = %12
  %.not.i = icmp eq i32 %13, 0
  br i1 %.not.i, label %lean_dec.exit13, label %18

18:                                               ; preds = %17
  tail call void @lean_dec_ref_cold(ptr noundef nonnull %3) #3
  br label %lean_dec.exit13

lean_dec.exit13:                                  ; preds = %18, %17, %15, %8
  %19 = ptrtoint ptr %1 to i64
  %20 = and i64 %19, 1
  %.not18 = icmp eq i64 %20, 0
  br i1 %.not18, label %21, label %lean_dec.exit12

21:                                               ; preds = %lean_dec.exit13
  %22 = load i32, ptr %1, align 4, !tbaa !8
  %23 = icmp sgt i32 %22, 1
  br i1 %23, label %24, label %26, !prof !11

24:                                               ; preds = %21
  %25 = add nsw i32 %22, -1
  store i32 %25, ptr %1, align 4, !tbaa !8
  br label %lean_dec.exit12

26:                                               ; preds = %21
  %.not.i14 = icmp eq i32 %22, 0
  br i1 %.not.i14, label %lean_dec.exit12, label %27

27:                                               ; preds = %26
  tail call void @lean_dec_ref_cold(ptr noundef nonnull %1) #3
  br label %lean_dec.exit12

lean_dec.exit12:                                  ; preds = %27, %26, %24, %lean_dec.exit13
  %28 = ptrtoint ptr %0 to i64
  %29 = and i64 %28, 1
  %.not19 = icmp eq i64 %29, 0
  br i1 %.not19, label %30, label %lean_dec.exit

30:                                               ; preds = %lean_dec.exit12
  %31 = load i32, ptr %0, align 4, !tbaa !8
  %32 = icmp sgt i32 %31, 1
  br i1 %32, label %33, label %35, !prof !11

33:                                               ; preds = %30
  %34 = add nsw i32 %31, -1
  store i32 %34, ptr %0, align 4, !tbaa !8
  br label %lean_dec.exit

35:                                               ; preds = %30
  %.not.i16 = icmp eq i32 %31, 0
  br i1 %.not.i16, label %lean_dec.exit, label %36

36:                                               ; preds = %35
  tail call void @lean_dec_ref_cold(ptr noundef nonnull %0) #3
  br label %lean_dec.exit

lean_dec.exit:                                    ; preds = %36, %35, %33, %lean_dec.exit12
  ret ptr %9
}